; Function Attrs: mustprogress uwtable
define hidden void @_ZNK6Assimp7Blender9Structure7ConvertINS0_2IDEEEvRT_RKNS0_12FileDatabaseE(ptr noundef nonnull align 8 dereferenceable(120) %0, ptr noundef nonnull align 8 dereferenceable(1042) %1, ptr noundef nonnull align 8 dereferenceable(232) %2) local_unnamed_addr #0 align 2 personality ptr @__gxx_personality_v0 {
  %4 = getelementptr inbounds nuw i8, ptr %1, i64 16
  tail call void @_ZNK6Assimp7Blender9Structure14ReadFieldArrayILi1EcLm1024EEEvRAT1__T0_PKcRKNS0_12FileDatabaseE(ptr noundef nonnull align 8 dereferenceable(120) %0, ptr noundef nonnull align 1 dereferenceable(1024) %4, ptr noundef nonnull @.str.224, ptr noundef nonnull align 8 dereferenceable(232) %2)
  %5 = getelementptr inbounds nuw i8, ptr %1, i64 1040
  tail call void @_ZNK6Assimp7Blender9Structure9ReadFieldILi0EsEEvRT0_PKcRKNS0_12FileDatabaseE(ptr noundef nonnull align 8 dereferenceable(120) %0, ptr noundef nonnull align 2 dereferenceable(2) %5, ptr noundef nonnull @.str.51, ptr noundef nonnull align 8 dereferenceable(232) %2)
  %6 = getelementptr inbounds nuw i8, ptr %2, i64 128
  %7 = load ptr, ptr %6, align 8
  %8 = getelementptr inbounds nuw i8, ptr %0, i64 104
  %9 = load i64, ptr %8, align 8
  %10 = getelementptr inbounds nuw i8, ptr %7, i64 24
  %11 = load ptr, ptr %10, align 8
  %12 = getelementptr inbounds i8, ptr %11, i64 %9
  store ptr %12, ptr %10, align 8
  %13 = getelementptr inbounds nuw i8, ptr %7, i64 40
  %14 = load ptr, ptr %13, align 8
  %15 = icmp ugt ptr %12, %14
  br i1 %15, label %16, label %_ZN6Assimp12StreamReaderILb1ELb1EE6IncPtrEl.exit

16:                                               ; preds = %3
  %17 = tail call ptr @__cxa_allocate_exception(i64 16) #23
  invoke void @_ZN17DeadlyImportErrorC2EPKc(ptr noundef nonnull align 8 dereferenceable(16) %17, ptr noundef nonnull @.str.307)
          to label %18 unwind label %19

18:                                               ; preds = %16
  tail call void @__cxa_throw(ptr nonnull %17, ptr nonnull @_ZTI17DeadlyImportError, ptr nonnull @_ZNSt13runtime_errorD2Ev) #24
  unreachable

19:                                               ; preds = %16
  %20 = landingpad { ptr, i32 }
          cleanup
  tail call void @__cxa_free_exception(ptr nonnull %17) #23
  resume { ptr, i32 } %20

_ZN6Assimp12StreamReaderILb1ELb1EE6IncPtrEl.exit: ; preds = %3
  ret void
}